target datalayout = "e-m:e-p270:32:32-p271:32:32-p272:64:64-i64:64-i128:128-f80:128-n8:16:32:64-S128"
target triple = "x86_64-pc-linux-gnu"

; Function Attrs: inlinehint nounwind uwtable
define internal i32 @Abc_TtCountOnes(i64 noundef %0) #2 {
  %2 = alloca i64, align 8
  store i64 %0, ptr %2, align 8, !tbaa !10
  %3 = load i64, ptr %2, align 8, !tbaa !10
  %4 = load i64, ptr %2, align 8, !tbaa !10
  %5 = lshr i64 %4, 1
  %6 = and i64 %5, 6148914691236517205
  %7 = sub i64 %3, %6
  store i64 %7, ptr %2, align 8, !tbaa !10
  %8 = load i64, ptr %2, align 8, !tbaa !10
  %9 = and i64 %8, 3689348814741910323
  %10 = load i64, ptr %2, align 8, !tbaa !10
  %11 = lshr i64 %10, 2
  %12 = and i64 %11, 3689348814741910323
  %13 = add i64 %9, %12
  store i64 %13, ptr %2, align 8, !tbaa !10
  %14 = load i64, ptr %2, align 8, !tbaa !10
  %15 = load i64, ptr %2, align 8, !tbaa !10
  %16 = lshr i64 %15, 4
  %17 = add i64 %14, %16
  %18 = and i64 %17, 1085102592571150095
  store i64 %18, ptr %2, align 8, !tbaa !10
  %19 = load i64, ptr %2, align 8, !tbaa !10
  %20 = load i64, ptr %2, align 8, !tbaa !10
  %21 = lshr i64 %20, 8
  %22 = add i64 %19, %21
  store i64 %22, ptr %2, align 8, !tbaa !10
  %23 = load i64, ptr %2, align 8, !tbaa !10
  %24 = load i64, ptr %2, align 8, !tbaa !10
  %25 = lshr i64 %24, 16
  %26 = add i64 %23, %25
  store i64 %26, ptr %2, align 8, !tbaa !10
  %27 = load i64, ptr %2, align 8, !tbaa !10
  %28 = load i64, ptr %2, align 8, !tbaa !10
  %29 = lshr i64 %28, 32
  %30 = add i64 %27, %29
  store i64 %30, ptr %2, align 8, !tbaa !10
  %31 = load i64, ptr %2, align 8, !tbaa !10
  %32 = and i64 %31, 255
  %33 = trunc i64 %32 to i32
  ret i32 %33
}

; Function Attrs: inlinehint nounwind uwtable
define internal void @Abc_TtVerifySmallTruth(ptr noundef %0, i32 noundef %1) #2 {
  %3 = alloca ptr, align 8
  %4 = alloca i32, align 4
  store ptr %0, ptr %3, align 8, !tbaa !3
  store i32 %1, ptr %4, align 4, !tbaa !8
  ret void
}

; Function Attrs: inlinehint nounwind uwtable
define internal i32 @Abc_TtWordNum(i32 noundef %0) #2 {
  %2 = alloca i32, align 4
  store i32 %0, ptr %2, align 4, !tbaa !8
  %3 = load i32, ptr %2, align 4, !tbaa !8
  %4 = icmp sle i32 %3, 6
  br i1 %4, label %5, label %6

5:                                                ; preds = %1
  br label %10

6:                                                ; preds = %1
  %7 = load i32, ptr %2, align 4, !tbaa !8
  %8 = sub nsw i32 %7, 6
  %9 = shl i32 1, %8
  br label %10

10:                                               ; preds = %6, %5
  %11 = phi i32 [ 1, %5 ], [ %9, %6 ]
  ret i32 %11
}

; Function Attrs: inlinehint nounwind uwtable
define internal i32 @Abc_TtCountOnesInTruth(ptr noundef %0, i32 noundef %1) #2 {
  %3 = alloca ptr, align 8
  %4 = alloca i32, align 4
  %5 = alloca i32, align 4
  %6 = alloca i32, align 4
  %7 = alloca i32, align 4
  store ptr %0, ptr %3, align 8, !tbaa !3
  store i32 %1, ptr %4, align 4, !tbaa !8
  call void @llvm.lifetime.start.p0(i64 4, ptr %5) #12
  %8 = load i32, ptr %4, align 4, !tbaa !8
  %9 = call i32 @Abc_TtWordNum(i32 noundef %8)
  store i32 %9, ptr %5, align 4, !tbaa !8
  call void @llvm.lifetime.start.p0(i64 4, ptr %6) #12
  call void @llvm.lifetime.start.p0(i64 4, ptr %7) #12
  store i32 0, ptr %7, align 4, !tbaa !8
  %10 = load ptr, ptr %3, align 8, !tbaa !3
  %11 = load i32, ptr %4, align 4, !tbaa !8
  call void @Abc_TtVerifySmallTruth(ptr noundef %10, i32 noundef %11)
  store i32 0, ptr %6, align 4, !tbaa !8
  br label %12

12:                                               ; preds = %33, %2
  %13 = load i32, ptr %6, align 4, !tbaa !8
  %14 = load i32, ptr %5, align 4, !tbaa !8
  %15 = icmp slt i32 %13, %14
  br i1 %15, label %16, label %36

16:                                               ; preds = %12
  %17 = load ptr, ptr %3, align 8, !tbaa !3
  %18 = load i32, ptr %6, align 4, !tbaa !8
  %19 = sext i32 %18 to i64
  %20 = getelementptr inbounds i64, ptr %17, i64 %19
  %21 = load i64, ptr %20, align 8, !tbaa !10
  %22 = icmp ne i64 %21, 0
  br i1 %22, label %23, label %32

23:                                               ; preds = %16
  %24 = load ptr, ptr %3, align 8, !tbaa !3
  %25 = load i32, ptr %6, align 4, !tbaa !8
  %26 = sext i32 %25 to i64
  %27 = getelementptr inbounds i64, ptr %24, i64 %26
  %28 = load i64, ptr %27, align 8, !tbaa !10
  %29 = call i32 @Abc_TtCountOnes(i64 noundef %28)
  %30 = load i32, ptr %7, align 4, !tbaa !8
  %31 = add nsw i32 %30, %29
  store i32 %31, ptr %7, align 4, !tbaa !8
  br label %32

32:                                               ; preds = %23, %16
  br label %33

33:                                               ; preds = %32
  %34 = load i32, ptr %6, align 4, !tbaa !8
  %35 = add nsw i32 %34, 1
  store i32 %35, ptr %6, align 4, !tbaa !8
  br label %12, !llvm.loop !21

36:                                               ; preds = %12
  %37 = load i32, ptr %7, align 4, !tbaa !8
  call void @llvm.lifetime.end.p0(i64 4, ptr %7) #12
  call void @llvm.lifetime.end.p0(i64 4, ptr %6) #12
  call void @llvm.lifetime.end.p0(i64 4, ptr %5) #12
  ret i32 %37
}

; Function Attrs: nounwind uwtable
define i32 @Abc_TtCountOnesInCofsSimple(ptr noundef %0, i32 noundef %1, ptr noundef %2) #0 {
  %4 = alloca ptr, align 8
  %5 = alloca i32, align 4
  %6 = alloca ptr, align 8
  store ptr %0, ptr %4, align 8, !tbaa !3
  store i32 %1, ptr %5, align 4, !tbaa !8
  store ptr %2, ptr %6, align 8, !tbaa !14
  %7 = load ptr, ptr %4, align 8, !tbaa !3
  %8 = load i32, ptr %5, align 4, !tbaa !8
  %9 = load ptr, ptr %6, align 8, !tbaa !14
  call void @Abc_TtCountOnesInCofs(ptr noundef %7, i32 noundef %8, ptr noundef %9)
  %10 = load ptr, ptr %4, align 8, !tbaa !3
  %11 = load i32, ptr %5, align 4, !tbaa !8
  %12 = call i32 @Abc_TtCountOnesInTruth(ptr noundef %10, i32 noundef %11)
  ret i32 %12
}