; Function Attrs: nofree norecurse nosync nounwind memory(argmem: readwrite) uwtable
define i32 @Abc_TtCountOnesInCofsSimple(ptr noundef readonly captures(none) %0, i32 noundef %1, ptr noundef captures(none) %2) local_unnamed_addr #0 {
  tail call fastcc void @Abc_TtCountOnesInCofs(ptr noundef %0, i32 noundef %1, ptr noundef %2)
  %4 = icmp slt i32 %1, 7
  %5 = add nsw i32 %1, -6
  %6 = shl nuw i32 1, %5
  %7 = select i1 %4, i32 1, i32 %6
  %8 = icmp sgt i32 %7, 0
  br i1 %8, label %.lr.ph.preheader.i, label %Abc_TtCountOnesInTruth.exit

.lr.ph.preheader.i:                               ; preds = %3
  %wide.trip.count.i = zext nneg i32 %7 to i64
  br label %.lr.ph.i

.lr.ph.i:                                         ; preds = %31, %.lr.ph.preheader.i
  %indvars.iv.i = phi i64 [ 0, %.lr.ph.preheader.i ], [ %indvars.iv.next.i, %31 ]
  %.014.i = phi i32 [ 0, %.lr.ph.preheader.i ], [ %.1.i, %31 ]
  %9 = getelementptr inbounds nuw i64, ptr %0, i64 %indvars.iv.i
  %10 = load i64, ptr %9, align 8, !tbaa !3
  %.not.i = icmp eq i64 %10, 0
  br i1 %.not.i, label %31, label %11

11:                                               ; preds = %.lr.ph.i
  %12 = lshr i64 %10, 1
  %13 = and i64 %12, 6148914691236517205
  %14 = sub i64 %10, %13
  %15 = and i64 %14, 3689348814741910323
  %16 = lshr i64 %14, 2
  %17 = and i64 %16, 3689348814741910323
  %18 = add nuw nsw i64 %17, %15
  %19 = lshr i64 %18, 4
  %20 = add nuw nsw i64 %19, %18
  %21 = and i64 %20, 1085102592571150095
  %22 = lshr i64 %21, 8
  %23 = add nuw nsw i64 %22, %21
  %24 = lshr i64 %23, 16
  %25 = add nuw nsw i64 %24, %23
  %26 = lshr i64 %25, 32
  %27 = add nuw nsw i64 %26, %25
  %28 = trunc i64 %27 to i32
  %29 = and i32 %28, 255
  %30 = add nsw i32 %29, %.014.i
  br label %31

31:                                               ; preds = %11, %.lr.ph.i
  %.1.i = phi i32 [ %30, %11 ], [ %.014.i, %.lr.ph.i ]
  %indvars.iv.next.i = add nuw nsw i64 %indvars.iv.i, 1
  %exitcond.not.i = icmp eq i64 %indvars.iv.next.i, %wide.trip.count.i
  br i1 %exitcond.not.i, label %Abc_TtCountOnesInTruth.exit, label %.lr.ph.i, !llvm.loop !9

Abc_TtCountOnesInTruth.exit:                      ; preds = %31, %3
  %.0.lcssa.i = phi i32 [ 0, %3 ], [ %.1.i, %31 ]
  ret i32 %.0.lcssa.i
}